target datalayout = "e-m:e-p270:32:32-p271:32:32-p272:64:64-i64:64-i128:128-f80:128-n8:16:32:64-S128"
target triple = "x86_64-pc-linux-gnu"

%struct.redisObject = type { i32, i32, ptr }
%struct.zset = type { ptr, ptr }

@.str.1 = private unnamed_addr constant [9 x i8] c"t_zset.c\00", align 1
@.str.9 = private unnamed_addr constant [28 x i8] c"Unknown sorted set encoding\00", align 1

; Function Attrs: nounwind uwtable
define dso_local i32 @zsetScore(ptr noundef %0, ptr noundef %1, ptr noundef %2) #0 {
  %4 = alloca i32, align 4
  %5 = alloca ptr, align 8
  %6 = alloca ptr, align 8
  %7 = alloca ptr, align 8
  %8 = alloca ptr, align 8
  %9 = alloca ptr, align 8
  %10 = alloca i32, align 4
  store ptr %0, ptr %5, align 8, !tbaa !78
  store ptr %1, ptr %6, align 8, !tbaa !11
  store ptr %2, ptr %7, align 8, !tbaa !105
  %11 = load ptr, ptr %5, align 8, !tbaa !78
  %12 = icmp ne ptr %11, null
  br i1 %12, label %13, label %16

13:                                               ; preds = %3
  %14 = load ptr, ptr %6, align 8, !tbaa !11
  %15 = icmp ne ptr %14, null
  br i1 %15, label %17, label %16

16:                                               ; preds = %13, %3
  store i32 -1, ptr %4, align 4
  br label %62

17:                                               ; preds = %13
  %18 = load ptr, ptr %5, align 8, !tbaa !78
  %19 = load i32, ptr %18, align 8
  %20 = lshr i32 %19, 4
  %21 = and i32 %20, 15
  %22 = icmp eq i32 %21, 11
  br i1 %22, label %23, label %33

23:                                               ; preds = %17
  %24 = load ptr, ptr %5, align 8, !tbaa !78
  %25 = getelementptr inbounds nuw %struct.redisObject, ptr %24, i32 0, i32 2
  %26 = load ptr, ptr %25, align 8, !tbaa !84
  %27 = load ptr, ptr %6, align 8, !tbaa !11
  %28 = load ptr, ptr %7, align 8, !tbaa !105
  %29 = call ptr @zzlFind(ptr noundef %26, ptr noundef %27, ptr noundef %28)
  %30 = icmp eq ptr %29, null
  br i1 %30, label %31, label %32

31:                                               ; preds = %23
  store i32 -1, ptr %4, align 4
  br label %62

32:                                               ; preds = %23
  br label %61

33:                                               ; preds = %17
  %34 = load ptr, ptr %5, align 8, !tbaa !78
  %35 = load i32, ptr %34, align 8
  %36 = lshr i32 %35, 4
  %37 = and i32 %36, 15
  %38 = icmp eq i32 %37, 7
  br i1 %38, label %39, label %59

39:                                               ; preds = %33
  call void @llvm.lifetime.start.p0(i64 8, ptr %8) #12
  %40 = load ptr, ptr %5, align 8, !tbaa !78
  %41 = getelementptr inbounds nuw %struct.redisObject, ptr %40, i32 0, i32 2
  %42 = load ptr, ptr %41, align 8, !tbaa !84
  store ptr %42, ptr %8, align 8, !tbaa !137
  call void @llvm.lifetime.start.p0(i64 8, ptr %9) #12
  %43 = load ptr, ptr %8, align 8, !tbaa !137
  %44 = getelementptr inbounds nuw %struct.zset, ptr %43, i32 0, i32 0
  %45 = load ptr, ptr %44, align 8, !tbaa !139
  %46 = load ptr, ptr %6, align 8, !tbaa !11
  %47 = call ptr @dictFind(ptr noundef %45, ptr noundef %46)
  store ptr %47, ptr %9, align 8, !tbaa !142
  %48 = load ptr, ptr %9, align 8, !tbaa !142
  %49 = icmp eq ptr %48, null
  br i1 %49, label %50, label %51

50:                                               ; preds = %39
  store i32 -1, ptr %4, align 4
  store i32 1, ptr %10, align 4
  br label %56

51:                                               ; preds = %39
  %52 = load ptr, ptr %9, align 8, !tbaa !142
  %53 = call ptr @dictGetVal(ptr noundef %52)
  %54 = load double, ptr %53, align 8, !tbaa !9
  %55 = load ptr, ptr %7, align 8, !tbaa !105
  store double %54, ptr %55, align 8, !tbaa !9
  store i32 0, ptr %10, align 4
  br label %56

56:                                               ; preds = %51, %50
  call void @llvm.lifetime.end.p0(i64 8, ptr %9) #12
  call void @llvm.lifetime.end.p0(i64 8, ptr %8) #12
  %57 = load i32, ptr %10, align 4
  switch i32 %57, label %64 [
    i32 0, label %58
    i32 1, label %62
  ]

58:                                               ; preds = %56
  br label %60

59:                                               ; preds = %33
  call void (ptr, i32, ptr, ...) @_serverPanic(ptr noundef @.str.1, i32 noundef 1359, ptr noundef @.str.9)
  call void @abort() #14
  unreachable

60:                                               ; preds = %58
  br label %61

61:                                               ; preds = %60, %32
  store i32 0, ptr %4, align 4
  br label %62

62:                                               ; preds = %61, %56, %31, %16
  %63 = load i32, ptr %4, align 4
  ret i32 %63

64:                                               ; preds = %56
  unreachable
}