; Function Attrs: nounwind uwtable
define dso_local range(i32 -1, 1) i32 @zsetScore(ptr noundef readonly captures(address_is_null) %0, ptr noundef %1, ptr noundef captures(address_is_null) %2) local_unnamed_addr #0 {
  %4 = icmp ne ptr %0, null
  %5 = icmp ne ptr %1, null
  %or.cond = and i1 %4, %5
  br i1 %or.cond, label %6, label %25

6:                                                ; preds = %3
  %7 = load i32, ptr %0, align 8
  %8 = lshr i32 %7, 4
  %9 = and i32 %8, 15
  switch i32 %9, label %23 [
    i32 11, label %10
    i32 7, label %15
  ]

10:                                               ; preds = %6
  %11 = getelementptr inbounds nuw i8, ptr %0, i64 8
  %12 = load ptr, ptr %11, align 8, !tbaa !75
  %13 = tail call ptr @zzlFind(ptr noundef %12, ptr noundef nonnull %1, ptr noundef %2)
  %14 = icmp eq ptr %13, null
  br i1 %14, label %25, label %24

15:                                               ; preds = %6
  %16 = getelementptr inbounds nuw i8, ptr %0, i64 8
  %17 = load ptr, ptr %16, align 8, !tbaa !75
  %18 = load ptr, ptr %17, align 8, !tbaa !125
  %19 = tail call ptr @dictFind(ptr noundef %18, ptr noundef nonnull %1) #18
  %20 = icmp eq ptr %19, null
  br i1 %20, label %25, label %.thread

.thread:                                          ; preds = %15
  %21 = tail call ptr @dictGetVal(ptr noundef nonnull %19) #18
  %22 = load double, ptr %21, align 8, !tbaa !5
  store double %22, ptr %2, align 8, !tbaa !5
  br label %24

23:                                               ; preds = %6
  tail call void (ptr, i32, ptr, ...) @_serverPanic(ptr noundef nonnull @.str.1, i32 noundef 1359, ptr noundef nonnull @.str.9) #18
  tail call void @abort() #19
  unreachable

24:                                               ; preds = %.thread, %10
  br label %25

25:                                               ; preds = %15, %10, %3, %24
  %.015 = phi i32 [ 0, %24 ], [ -1, %3 ], [ -1, %10 ], [ -1, %15 ]
  ret i32 %.015
}